target datalayout = "e-m:e-p270:32:32-p271:32:32-p272:64:64-i64:64-i128:128-f80:128-n8:16:32:64-S128"
target triple = "x86_64-pc-linux-gnu"

; Function Attrs: mustprogress uwtable
define hidden void @_ZN5osgeo4proj2cs9OrdinalCSC2ERKSt6vectorIN7dropbox6oxygen2nnISt10shared_ptrINS1_20CoordinateSystemAxisEEEESaISA_EE(ptr noundef nonnull align 8 dereferenceable(56) %0, ptr noundef nonnull align 8 dereferenceable(24) %1) unnamed_addr #0 align 2 {
  %3 = alloca ptr, align 8
  %4 = alloca ptr, align 8
  store ptr %0, ptr %3, align 8, !tbaa !173
  store ptr %1, ptr %4, align 8, !tbaa !119
  %5 = load ptr, ptr %3, align 8
  %6 = load ptr, ptr %4, align 8, !tbaa !119
  call void @_ZN5osgeo4proj2cs16CoordinateSystemC2ERKSt6vectorIN7dropbox6oxygen2nnISt10shared_ptrINS1_20CoordinateSystemAxisEEEESaISA_EE(ptr noundef nonnull align 8 dereferenceable(56) %5, ptr noundef nonnull align 8 dereferenceable(24) %6)
  store ptr getelementptr inbounds inrange(-16, 56) ({ [9 x ptr], [5 x ptr], [5 x ptr], [5 x ptr] }, ptr @_ZTVN5osgeo4proj2cs9OrdinalCSE, i32 0, i32 0, i32 2), ptr %5, align 8, !tbaa !10
  %7 = getelementptr inbounds i8, ptr %5, i64 16
  store ptr getelementptr inbounds inrange(-16, 24) ({ [9 x ptr], [5 x ptr], [5 x ptr], [5 x ptr] }, ptr @_ZTVN5osgeo4proj2cs9OrdinalCSE, i32 0, i32 1, i32 2), ptr %7, align 8, !tbaa !10
  %8 = getelementptr inbounds i8, ptr %5, i64 24
  store ptr getelementptr inbounds inrange(-16, 24) ({ [9 x ptr], [5 x ptr], [5 x ptr], [5 x ptr] }, ptr @_ZTVN5osgeo4proj2cs9OrdinalCSE, i32 0, i32 2, i32 2), ptr %8, align 8, !tbaa !10
  %9 = getelementptr inbounds i8, ptr %5, i64 40
  store ptr getelementptr inbounds inrange(-16, 24) ({ [9 x ptr], [5 x ptr], [5 x ptr], [5 x ptr] }, ptr @_ZTVN5osgeo4proj2cs9OrdinalCSE, i32 0, i32 3, i32 2), ptr %9, align 8, !tbaa !10
  ret void
}